; Function Attrs: nounwind uwtable
define hidden noundef ptr @_PyObject_VectorcallDictTstate(ptr noundef %0, ptr noundef %1, ptr noundef %2, i64 noundef %3, ptr noundef %4) local_unnamed_addr #0 {
  %6 = alloca ptr, align 8
  %7 = and i64 %3, 9223372036854775807
  %8 = getelementptr i8, ptr %1, i64 8
  %.val.i.i = load ptr, ptr %8, align 8, !tbaa !20
  %9 = getelementptr i8, ptr %.val.i.i, i64 168
  %.val6.i.i = load i64, ptr %9, align 8, !tbaa !34
  %10 = and i64 %.val6.i.i, 2048
  %.not.i.i = icmp eq i64 %10, 0
  br i1 %.not.i.i, label %PyVectorcall_Function.exit.thread, label %PyVectorcall_Function.exit

PyVectorcall_Function.exit:                       ; preds = %5
  %11 = getelementptr inbounds nuw i8, ptr %.val.i.i, i64 56
  %12 = load i64, ptr %11, align 8, !tbaa !35
  %13 = getelementptr i8, ptr %1, i64 %12
  %.0.copyload.i.i = load ptr, ptr %13, align 1
  %14 = icmp eq ptr %.0.copyload.i.i, null
  br i1 %14, label %PyVectorcall_Function.exit.thread, label %16

PyVectorcall_Function.exit.thread:                ; preds = %5, %PyVectorcall_Function.exit
  %15 = tail call ptr @_PyObject_MakeTpCall(ptr noundef %0, ptr noundef nonnull %1, ptr noundef %2, i64 noundef %7, ptr noundef %4)
  br label %48

16:                                               ; preds = %PyVectorcall_Function.exit
  %17 = icmp eq ptr %4, null
  br i1 %17, label %21, label %18

18:                                               ; preds = %16
  %19 = getelementptr i8, ptr %4, i64 16
  %.val = load i64, ptr %19, align 8, !tbaa !36
  %20 = icmp eq i64 %.val, 0
  br i1 %20, label %21, label %23

21:                                               ; preds = %18, %16
  %22 = tail call ptr %.0.copyload.i.i(ptr noundef nonnull %1, ptr noundef %2, i64 noundef %3, ptr noundef null) #10
  br label %46

23:                                               ; preds = %18
  call void @llvm.lifetime.start.p0(i64 8, ptr nonnull %6) #10
  %24 = call ptr @_PyStack_UnpackDict(ptr noundef %0, ptr noundef %2, i64 noundef %7, ptr noundef nonnull %4, ptr noundef nonnull %6)
  %.not = icmp eq ptr %24, null
  br i1 %.not, label %_PyStack_UnpackDict_Free.exit, label %25

25:                                               ; preds = %23
  %26 = or i64 %3, -9223372036854775808
  %27 = load ptr, ptr %6, align 8, !tbaa !23
  %28 = tail call ptr %.0.copyload.i.i(ptr noundef nonnull %1, ptr noundef nonnull %24, i64 noundef %26, ptr noundef %27) #10
  %29 = getelementptr i8, ptr %27, i64 16
  %.val.i = load i64, ptr %29, align 8, !tbaa !40
  %30 = add i64 %.val.i, %7
  %31 = icmp sgt i64 %30, 0
  br i1 %31, label %.lr.ph.i, label %._crit_edge.i

._crit_edge.i:                                    ; preds = %Py_DECREF.exit.i, %25
  %32 = getelementptr i8, ptr %24, i64 -8
  tail call void @PyMem_Free(ptr noundef %32) #10
  %33 = load i32, ptr %27, align 8, !tbaa !24
  %.not.i.i.i = icmp sgt i32 %33, -1
  br i1 %.not.i.i.i, label %34, label %_PyStack_UnpackDict_Free.exit.thread

34:                                               ; preds = %._crit_edge.i
  %35 = add nsw i32 %33, -1
  store i32 %35, ptr %27, align 8, !tbaa !24
  %36 = icmp eq i32 %35, 0
  br i1 %36, label %37, label %_PyStack_UnpackDict_Free.exit.thread

37:                                               ; preds = %34
  tail call void @_Py_Dealloc(ptr noundef nonnull %27) #10
  br label %_PyStack_UnpackDict_Free.exit.thread

.lr.ph.i:                                         ; preds = %25, %Py_DECREF.exit.i
  %.08.i = phi i64 [ %45, %Py_DECREF.exit.i ], [ 0, %25 ]
  %38 = getelementptr ptr, ptr %24, i64 %.08.i
  %39 = load ptr, ptr %38, align 8, !tbaa !23
  %40 = load i32, ptr %39, align 8, !tbaa !24
  %.not.i.i35 = icmp sgt i32 %40, -1
  br i1 %.not.i.i35, label %41, label %Py_DECREF.exit.i

41:                                               ; preds = %.lr.ph.i
  %42 = add nsw i32 %40, -1
  store i32 %42, ptr %39, align 8, !tbaa !24
  %43 = icmp eq i32 %42, 0
  br i1 %43, label %44, label %Py_DECREF.exit.i

44:                                               ; preds = %41
  tail call void @_Py_Dealloc(ptr noundef nonnull %39) #10
  br label %Py_DECREF.exit.i

Py_DECREF.exit.i:                                 ; preds = %44, %41, %.lr.ph.i
  %45 = add nuw nsw i64 %.08.i, 1
  %exitcond.not.i = icmp eq i64 %45, %30
  br i1 %exitcond.not.i, label %._crit_edge.i, label %.lr.ph.i, !llvm.loop !41

_PyStack_UnpackDict_Free.exit.thread:             ; preds = %37, %34, %._crit_edge.i
  call void @llvm.lifetime.end.p0(i64 8, ptr nonnull %6) #10
  br label %46

_PyStack_UnpackDict_Free.exit:                    ; preds = %23
  call void @llvm.lifetime.end.p0(i64 8, ptr nonnull %6) #10
  br label %48

46:                                               ; preds = %_PyStack_UnpackDict_Free.exit.thread, %21
  %.029 = phi ptr [ %22, %21 ], [ %28, %_PyStack_UnpackDict_Free.exit.thread ]
  %47 = tail call ptr @_Py_CheckFunctionResult(ptr noundef %0, ptr noundef %1, ptr noundef %.029, ptr noundef null)
  br label %48

48:                                               ; preds = %_PyStack_UnpackDict_Free.exit, %46, %PyVectorcall_Function.exit.thread
  %.0 = phi ptr [ %15, %PyVectorcall_Function.exit.thread ], [ %47, %46 ], [ null, %_PyStack_UnpackDict_Free.exit ]
  ret ptr %.0
}